target datalayout = "e-m:e-p270:32:32-p271:32:32-p272:64:64-i64:64-i128:128-f80:128-n8:16:32:64-S128"
target triple = "x86_64-pc-linux-gnu"

%struct.cli_ctx_tag = type { ptr, ptr, ptr, ptr, ptr, ptr, ptr, i64, ptr, i32, i32, ptr, i32, i32, ptr, [16 x i8], ptr, ptr, ptr, ptr, ptr, ptr, %struct.timeval, i8, i8 }
%struct.timeval = type { i64, i64 }
%struct.cl_scan_options = type { i32, i32, i32, i32, i32 }
%struct.cl_fmap = type { ptr, ptr, ptr, i64, i64, i64, i64, i8, i8, i8, i64, i64, i64, i64, ptr, ptr, ptr, ptr, ptr, ptr, ptr, i8, [16 x i8], i8, [20 x i8], i8, [32 x i8], ptr, ptr }
%struct.macho_fat_header = type { i32, i32 }
%struct.macho_fat_arch = type { i32, i32, i32, i32, i32 }

@.str.23 = private unnamed_addr constant [29 x i8] c"Heuristics.Broken.Executable\00", align 1
@.str.46 = private unnamed_addr constant [45 x i8] c"cli_scanmacho_unibin: Can't read fat_header\0A\00", align 1
@.str.47 = private unnamed_addr constant [39 x i8] c"cli_scanmacho_unibin: Incorrect magic\0A\00", align 1
@.str.48 = private unnamed_addr constant [55 x i8] c"cli_scanmacho_unibin: Invalid number of architectures\0A\00", align 1
@.str.49 = private unnamed_addr constant [37 x i8] c"UNIBIN: Number of architectures: %u\0A\00", align 1
@.str.50 = private unnamed_addr constant [43 x i8] c"cli_scanmacho_unibin: Can't read fat_arch\0A\00", align 1
@.str.51 = private unnamed_addr constant [25 x i8] c"UNIBIN: Binary %u of %u\0A\00", align 1
@.str.52 = private unnamed_addr constant [25 x i8] c"UNIBIN: File offset: %u\0A\00", align 1
@.str.53 = private unnamed_addr constant [23 x i8] c"UNIBIN: File size: %u\0A\00", align 1
@.str.54 = private unnamed_addr constant [24 x i8] c"Invalid fat offset: %d\0A\00", align 1

; Function Attrs: nounwind uwtable
define internal ptr @fmap_need_off_once(ptr noundef %0, i64 noundef %1, i64 noundef %2) #0 {
  %4 = alloca ptr, align 8
  %5 = alloca i64, align 8
  %6 = alloca i64, align 8
  store ptr %0, ptr %4, align 8
  store i64 %1, ptr %5, align 8
  store i64 %2, ptr %6, align 8
  %7 = load ptr, ptr %4, align 8
  %8 = getelementptr inbounds %struct.cl_fmap, ptr %7, i32 0, i32 15
  %9 = load ptr, ptr %8, align 8
  %10 = load ptr, ptr %4, align 8
  %11 = load i64, ptr %5, align 8
  %12 = load i64, ptr %6, align 8
  %13 = call ptr %9(ptr noundef %10, i64 noundef %11, i64 noundef %12, i32 noundef 0)
  ret ptr %13
}

; Function Attrs: nounwind uwtable
define internal i64 @fmap_readn(ptr noundef %0, ptr noundef %1, i64 noundef %2, i64 noundef %3) #0 {
  %5 = alloca i64, align 8
  %6 = alloca ptr, align 8
  %7 = alloca ptr, align 8
  %8 = alloca i64, align 8
  %9 = alloca i64, align 8
  %10 = alloca ptr, align 8
  store ptr %0, ptr %6, align 8
  store ptr %1, ptr %7, align 8
  store i64 %2, ptr %8, align 8
  store i64 %3, ptr %9, align 8
  %11 = load i64, ptr %8, align 8
  %12 = load ptr, ptr %6, align 8
  %13 = getelementptr inbounds %struct.cl_fmap, ptr %12, i32 0, i32 13
  %14 = load i64, ptr %13, align 8
  %15 = icmp eq i64 %11, %14
  br i1 %15, label %19, label %16

16:                                               ; preds = %4
  %17 = load i64, ptr %9, align 8
  %18 = icmp ne i64 %17, 0
  br i1 %18, label %20, label %19

19:                                               ; preds = %16, %4
  store i64 0, ptr %5, align 8
  br label %60

20:                                               ; preds = %16
  %21 = load i64, ptr %8, align 8
  %22 = load ptr, ptr %6, align 8
  %23 = getelementptr inbounds %struct.cl_fmap, ptr %22, i32 0, i32 13
  %24 = load i64, ptr %23, align 8
  %25 = icmp ugt i64 %21, %24
  br i1 %25, label %26, label %27

26:                                               ; preds = %20
  store i64 -1, ptr %5, align 8
  br label %60

27:                                               ; preds = %20
  %28 = load i64, ptr %9, align 8
  %29 = load ptr, ptr %6, align 8
  %30 = getelementptr inbounds %struct.cl_fmap, ptr %29, i32 0, i32 13
  %31 = load i64, ptr %30, align 8
  %32 = load i64, ptr %8, align 8
  %33 = sub i64 %31, %32
  %34 = icmp ugt i64 %28, %33
  br i1 %34, label %35, label %41

35:                                               ; preds = %27
  %36 = load ptr, ptr %6, align 8
  %37 = getelementptr inbounds %struct.cl_fmap, ptr %36, i32 0, i32 13
  %38 = load i64, ptr %37, align 8
  %39 = load i64, ptr %8, align 8
  %40 = sub i64 %38, %39
  store i64 %40, ptr %9, align 8
  br label %41

41:                                               ; preds = %35, %27
  %42 = load ptr, ptr %6, align 8
  %43 = load i64, ptr %8, align 8
  %44 = load i64, ptr %9, align 8
  %45 = call ptr @fmap_need_off_once(ptr noundef %42, i64 noundef %43, i64 noundef %44)
  store ptr %45, ptr %10, align 8
  %46 = load ptr, ptr %10, align 8
  %47 = icmp ne ptr %46, null
  br i1 %47, label %49, label %48

48:                                               ; preds = %41
  store i64 -1, ptr %5, align 8
  br label %60

49:                                               ; preds = %41
  %50 = load ptr, ptr %7, align 8
  %51 = load ptr, ptr %10, align 8
  %52 = load i64, ptr %9, align 8
  call void @llvm.memcpy.p0.p0.i64(ptr align 1 %50, ptr align 1 %51, i64 %52, i1 false)
  %53 = load i64, ptr %9, align 8
  %54 = icmp ule i64 %53, 2147483647
  br i1 %54, label %55, label %57

55:                                               ; preds = %49
  %56 = load i64, ptr %9, align 8
  br label %58

57:                                               ; preds = %49
  br label %58

58:                                               ; preds = %57, %55
  %59 = phi i64 [ %56, %55 ], [ -1, %57 ]
  store i64 %59, ptr %5, align 8
  br label %60

60:                                               ; preds = %58, %48, %26, %19
  %61 = load i64, ptr %5, align 8
  ret i64 %61
}

; Function Attrs: nounwind uwtable
define i32 @cli_scanmacho_unibin(ptr noundef %0) #0 {
  %2 = alloca i32, align 4
  %3 = alloca ptr, align 8
  %4 = alloca %struct.macho_fat_header, align 4
  %5 = alloca %struct.macho_fat_arch, align 4
  %6 = alloca i32, align 4
  %7 = alloca i32, align 4
  %8 = alloca i32, align 4
  %9 = alloca ptr, align 8
  %10 = alloca i64, align 8
  store ptr %0, ptr %3, align 8
  store i32 0, ptr %8, align 4
  %11 = load ptr, ptr %3, align 8
  %12 = getelementptr inbounds %struct.cli_ctx_tag, ptr %11, i32 0, i32 14
  %13 = load ptr, ptr %12, align 8
  store ptr %13, ptr %9, align 8
  %14 = load ptr, ptr %9, align 8
  %15 = call i64 @fmap_readn(ptr noundef %14, ptr noundef %4, i64 noundef 0, i64 noundef 8)
  %16 = icmp ne i64 %15, 8
  br i1 %16, label %17, label %18

17:                                               ; preds = %1
  call void (ptr, ...) @cli_dbgmsg(ptr noundef @.str.46)
  store i32 26, ptr %2, align 4
  br label %205

18:                                               ; preds = %1
  store i64 8, ptr %10, align 8
  %19 = getelementptr inbounds %struct.macho_fat_header, ptr %4, i32 0, i32 0
  %20 = load i32, ptr %19, align 4
  %21 = icmp eq i32 %20, -889275714
  br i1 %21, label %22, label %23

22:                                               ; preds = %18
  store i32 0, ptr %6, align 4
  br label %30

23:                                               ; preds = %18
  %24 = getelementptr inbounds %struct.macho_fat_header, ptr %4, i32 0, i32 0
  %25 = load i32, ptr %24, align 4
  %26 = icmp eq i32 %25, -1095041334
  br i1 %26, label %27, label %28

27:                                               ; preds = %23
  store i32 1, ptr %6, align 4
  br label %29

28:                                               ; preds = %23
  call void (ptr, ...) @cli_dbgmsg(ptr noundef @.str.47)
  store i32 26, ptr %2, align 4
  br label %205

29:                                               ; preds = %27
  br label %30

30:                                               ; preds = %29, %22
  %31 = load i32, ptr %6, align 4
  %32 = icmp ne i32 %31, 0
  br i1 %32, label %33, label %53

33:                                               ; preds = %30
  %34 = getelementptr inbounds %struct.macho_fat_header, ptr %4, i32 0, i32 1
  %35 = load i32, ptr %34, align 4
  %36 = and i32 %35, 255
  %37 = shl i32 %36, 24
  %38 = getelementptr inbounds %struct.macho_fat_header, ptr %4, i32 0, i32 1
  %39 = load i32, ptr %38, align 4
  %40 = and i32 %39, 65280
  %41 = shl i32 %40, 8
  %42 = or i32 %37, %41
  %43 = getelementptr inbounds %struct.macho_fat_header, ptr %4, i32 0, i32 1
  %44 = load i32, ptr %43, align 4
  %45 = and i32 %44, 16711680
  %46 = lshr i32 %45, 8
  %47 = or i32 %42, %46
  %48 = getelementptr inbounds %struct.macho_fat_header, ptr %4, i32 0, i32 1
  %49 = load i32, ptr %48, align 4
  %50 = and i32 %49, -16777216
  %51 = lshr i32 %50, 24
  %52 = or i32 %47, %51
  br label %56

53:                                               ; preds = %30
  %54 = getelementptr inbounds %struct.macho_fat_header, ptr %4, i32 0, i32 1
  %55 = load i32, ptr %54, align 4
  br label %56

56:                                               ; preds = %53, %33
  %57 = phi i32 [ %52, %33 ], [ %55, %53 ]
  %58 = getelementptr inbounds %struct.macho_fat_header, ptr %4, i32 0, i32 1
  store i32 %57, ptr %58, align 4
  %59 = getelementptr inbounds %struct.macho_fat_header, ptr %4, i32 0, i32 1
  %60 = load i32, ptr %59, align 4
  %61 = and i32 %60, 65535
  %62 = icmp uge i32 %61, 39
  br i1 %62, label %63, label %64

63:                                               ; preds = %56
  store i32 0, ptr %2, align 4
  br label %205

64:                                               ; preds = %56
  %65 = getelementptr inbounds %struct.macho_fat_header, ptr %4, i32 0, i32 1
  %66 = load i32, ptr %65, align 4
  %67 = icmp ugt i32 %66, 32
  br i1 %67, label %68, label %69

68:                                               ; preds = %64
  call void (ptr, ...) @cli_dbgmsg(ptr noundef @.str.48)
  store i32 26, ptr %2, align 4
  br label %205

69:                                               ; preds = %64
  %70 = getelementptr inbounds %struct.macho_fat_header, ptr %4, i32 0, i32 1
  %71 = load i32, ptr %70, align 4
  call void (ptr, ...) @cli_dbgmsg(ptr noundef @.str.49, i32 noundef %71)
  store i32 0, ptr %7, align 4
  br label %72

72:                                               ; preds = %200, %69
  %73 = load i32, ptr %7, align 4
  %74 = getelementptr inbounds %struct.macho_fat_header, ptr %4, i32 0, i32 1
  %75 = load i32, ptr %74, align 4
  %76 = icmp ult i32 %73, %75
  br i1 %76, label %77, label %203

77:                                               ; preds = %72
  %78 = load ptr, ptr %9, align 8
  %79 = load i64, ptr %10, align 8
  %80 = call i64 @fmap_readn(ptr noundef %78, ptr noundef %5, i64 noundef %79, i64 noundef 20)
  %81 = icmp ne i64 %80, 20
  br i1 %81, label %82, label %97

82:                                               ; preds = %77
  call void (ptr, ...) @cli_dbgmsg(ptr noundef @.str.50)
  %83 = load ptr, ptr %3, align 8
  %84 = getelementptr inbounds %struct.cli_ctx_tag, ptr %83, i32 0, i32 8
  %85 = load ptr, ptr %84, align 8
  %86 = getelementptr inbounds %struct.cl_scan_options, ptr %85, i32 0, i32 2
  %87 = load i32, ptr %86, align 4
  %88 = and i32 %87, 2
  %89 = icmp ne i32 %88, 0
  br i1 %89, label %90, label %96

90:                                               ; preds = %82
  %91 = load ptr, ptr %3, align 8
  %92 = call i32 @cli_append_potentially_unwanted(ptr noundef %91, ptr noundef @.str.23)
  %93 = icmp eq i32 1, %92
  br i1 %93, label %94, label %95

94:                                               ; preds = %90
  store i32 1, ptr %2, align 4
  br label %205

95:                                               ; preds = %90
  br label %96

96:                                               ; preds = %95, %82
  store i32 26, ptr %2, align 4
  br label %205

97:                                               ; preds = %77
  %98 = load i64, ptr %10, align 8
  %99 = add i64 %98, 20
  store i64 %99, ptr %10, align 8
  %100 = load i32, ptr %6, align 4
  %101 = icmp ne i32 %100, 0
  br i1 %101, label %102, label %122

102:                                              ; preds = %97
  %103 = getelementptr inbounds %struct.macho_fat_arch, ptr %5, i32 0, i32 2
  %104 = load i32, ptr %103, align 4
  %105 = and i32 %104, 255
  %106 = shl i32 %105, 24
  %107 = getelementptr inbounds %struct.macho_fat_arch, ptr %5, i32 0, i32 2
  %108 = load i32, ptr %107, align 4
  %109 = and i32 %108, 65280
  %110 = shl i32 %109, 8
  %111 = or i32 %106, %110
  %112 = getelementptr inbounds %struct.macho_fat_arch, ptr %5, i32 0, i32 2
  %113 = load i32, ptr %112, align 4
  %114 = and i32 %113, 16711680
  %115 = lshr i32 %114, 8
  %116 = or i32 %111, %115
  %117 = getelementptr inbounds %struct.macho_fat_arch, ptr %5, i32 0, i32 2
  %118 = load i32, ptr %117, align 4
  %119 = and i32 %118, -16777216
  %120 = lshr i32 %119, 24
  %121 = or i32 %116, %120
  br label %125

122:                                              ; preds = %97
  %123 = getelementptr inbounds %struct.macho_fat_arch, ptr %5, i32 0, i32 2
  %124 = load i32, ptr %123, align 4
  br label %125

125:                                              ; preds = %122, %102
  %126 = phi i32 [ %121, %102 ], [ %124, %122 ]
  %127 = getelementptr inbounds %struct.macho_fat_arch, ptr %5, i32 0, i32 2
  store i32 %126, ptr %127, align 4
  %128 = load i32, ptr %6, align 4
  %129 = icmp ne i32 %128, 0
  br i1 %129, label %130, label %150

130:                                              ; preds = %125
  %131 = getelementptr inbounds %struct.macho_fat_arch, ptr %5, i32 0, i32 3
  %132 = load i32, ptr %131, align 4
  %133 = and i32 %132, 255
  %134 = shl i32 %133, 24
  %135 = getelementptr inbounds %struct.macho_fat_arch, ptr %5, i32 0, i32 3
  %136 = load i32, ptr %135, align 4
  %137 = and i32 %136, 65280
  %138 = shl i32 %137, 8
  %139 = or i32 %134, %138
  %140 = getelementptr inbounds %struct.macho_fat_arch, ptr %5, i32 0, i32 3
  %141 = load i32, ptr %140, align 4
  %142 = and i32 %141, 16711680
  %143 = lshr i32 %142, 8
  %144 = or i32 %139, %143
  %145 = getelementptr inbounds %struct.macho_fat_arch, ptr %5, i32 0, i32 3
  %146 = load i32, ptr %145, align 4
  %147 = and i32 %146, -16777216
  %148 = lshr i32 %147, 24
  %149 = or i32 %144, %148
  br label %153

150:                                              ; preds = %125
  %151 = getelementptr inbounds %struct.macho_fat_arch, ptr %5, i32 0, i32 3
  %152 = load i32, ptr %151, align 4
  br label %153

153:                                              ; preds = %150, %130
  %154 = phi i32 [ %149, %130 ], [ %152, %150 ]
  %155 = getelementptr inbounds %struct.macho_fat_arch, ptr %5, i32 0, i32 3
  store i32 %154, ptr %155, align 4
  %156 = load i32, ptr %7, align 4
  %157 = add i32 %156, 1
  %158 = getelementptr inbounds %struct.macho_fat_header, ptr %4, i32 0, i32 1
  %159 = load i32, ptr %158, align 4
  call void (ptr, ...) @cli_dbgmsg(ptr noundef @.str.51, i32 noundef %157, i32 noundef %159)
  %160 = getelementptr inbounds %struct.macho_fat_arch, ptr %5, i32 0, i32 2
  %161 = load i32, ptr %160, align 4
  call void (ptr, ...) @cli_dbgmsg(ptr noundef @.str.52, i32 noundef %161)
  %162 = getelementptr inbounds %struct.macho_fat_arch, ptr %5, i32 0, i32 3
  %163 = load i32, ptr %162, align 4
  call void (ptr, ...) @cli_dbgmsg(ptr noundef @.str.53, i32 noundef %163)
  %164 = getelementptr inbounds %struct.macho_fat_arch, ptr %5, i32 0, i32 2
  %165 = load i32, ptr %164, align 4
  %166 = zext i32 %165 to i64
  %167 = load i64, ptr %10, align 8
  %168 = icmp slt i64 %166, %167
  br i1 %168, label %169, label %186

169:                                              ; preds = %153
  %170 = getelementptr inbounds %struct.macho_fat_arch, ptr %5, i32 0, i32 2
  %171 = load i32, ptr %170, align 4
  call void (ptr, ...) @cli_dbgmsg(ptr noundef @.str.54, i32 noundef %171)
  %172 = load ptr, ptr %3, align 8
  %173 = getelementptr inbounds %struct.cli_ctx_tag, ptr %172, i32 0, i32 8
  %174 = load ptr, ptr %173, align 8
  %175 = getelementptr inbounds %struct.cl_scan_options, ptr %174, i32 0, i32 2
  %176 = load i32, ptr %175, align 4
  %177 = and i32 %176, 2
  %178 = icmp ne i32 %177, 0
  br i1 %178, label %179, label %185

179:                                              ; preds = %169
  %180 = load ptr, ptr %3, align 8
  %181 = call i32 @cli_append_potentially_unwanted(ptr noundef %180, ptr noundef @.str.23)
  %182 = icmp eq i32 1, %181
  br i1 %182, label %183, label %184

183:                                              ; preds = %179
  store i32 1, ptr %2, align 4
  br label %205

184:                                              ; preds = %179
  br label %185

185:                                              ; preds = %184, %169
  store i32 26, ptr %2, align 4
  br label %205

186:                                              ; preds = %153
  %187 = load ptr, ptr %9, align 8
  %188 = getelementptr inbounds %struct.macho_fat_arch, ptr %5, i32 0, i32 2
  %189 = load i32, ptr %188, align 4
  %190 = zext i32 %189 to i64
  %191 = getelementptr inbounds %struct.macho_fat_arch, ptr %5, i32 0, i32 3
  %192 = load i32, ptr %191, align 4
  %193 = zext i32 %192 to i64
  %194 = load ptr, ptr %3, align 8
  %195 = call i32 @cli_magic_scan_nested_fmap_type(ptr noundef %187, i64 noundef %190, i64 noundef %193, ptr noundef %194, i32 noundef 0, ptr noundef null, i32 noundef 0)
  store i32 %195, ptr %8, align 4
  %196 = load i32, ptr %8, align 4
  %197 = icmp ne i32 %196, 0
  br i1 %197, label %198, label %199

198:                                              ; preds = %186
  br label %203

199:                                              ; preds = %186
  br label %200

200:                                              ; preds = %199
  %201 = load i32, ptr %7, align 4
  %202 = add i32 %201, 1
  store i32 %202, ptr %7, align 4
  br label %72

203:                                              ; preds = %198, %72
  %204 = load i32, ptr %8, align 4
  store i32 %204, ptr %2, align 4
  br label %205

205:                                              ; preds = %203, %185, %183, %96, %94, %68, %63, %28, %17
  %206 = load i32, ptr %2, align 4
  ret i32 %206
}