; Function Attrs: nounwind uwtable
define i32 @cli_scanmacho_unibin(ptr noundef %0) local_unnamed_addr #0 {
  %2 = alloca %struct.macho_fat_header, align 4
  %3 = alloca %struct.macho_fat_arch, align 4
  %4 = getelementptr inbounds nuw i8, ptr %0, i64 96
  %5 = load ptr, ptr %4, align 8
  %6 = getelementptr inbounds nuw i8, ptr %5, i64 88
  %7 = load i64, ptr %6, align 8
  %.not.i = icmp eq i64 %7, 0
  br i1 %.not.i, label %fmap_readn.exit.thread, label %8

8:                                                ; preds = %1
  %spec.select.i = tail call i64 @llvm.umin.i64(i64 %7, i64 8)
  %9 = getelementptr inbounds nuw i8, ptr %5, i64 104
  %10 = load ptr, ptr %9, align 8
  %11 = tail call ptr %10(ptr noundef nonnull %5, i64 noundef 0, i64 noundef %spec.select.i, i32 noundef 0) #7
  %.not26.i = icmp eq ptr %11, null
  br i1 %.not26.i, label %fmap_readn.exit.thread, label %fmap_readn.exit

fmap_readn.exit:                                  ; preds = %8
  call void @llvm.memcpy.p0.p0.i64(ptr nonnull align 4 %2, ptr nonnull align 1 %11, i64 %spec.select.i, i1 false)
  %.not = icmp ugt i64 %7, 7
  br i1 %.not, label %12, label %fmap_readn.exit.thread

fmap_readn.exit.thread:                           ; preds = %8, %1, %fmap_readn.exit
  tail call void (ptr, ...) @cli_dbgmsg(ptr noundef nonnull @.str.46) #7
  br label %.loopexit

12:                                               ; preds = %fmap_readn.exit
  %.0..0..0. = load i32, ptr %2, align 4
  %13 = icmp eq i32 %.0..0..0., -889275714
  br i1 %13, label %.critedge, label %14

14:                                               ; preds = %12
  %15 = icmp eq i32 %.0..0..0., -1095041334
  br i1 %15, label %17, label %16

16:                                               ; preds = %14
  tail call void (ptr, ...) @cli_dbgmsg(ptr noundef nonnull @.str.47) #7
  br label %.loopexit

17:                                               ; preds = %14
  %.4..4..4..sroa_idx71 = getelementptr inbounds nuw i8, ptr %2, i64 4
  %.4..4..4.55 = load i32, ptr %.4..4..4..sroa_idx71, align 4
  %18 = tail call i32 @llvm.bswap.i32(i32 %.4..4..4.55)
  br label %19

.critedge:                                        ; preds = %12
  %.4..4..4..sroa_idx = getelementptr inbounds nuw i8, ptr %2, i64 4
  %.4..4..4. = load i32, ptr %.4..4..4..sroa_idx, align 4
  br label %19

19:                                               ; preds = %.critedge, %17
  %20 = phi i32 [ %18, %17 ], [ %.4..4..4., %.critedge ]
  %21 = and i32 %20, 65535
  %22 = icmp samesign ugt i32 %21, 38
  br i1 %22, label %.loopexit, label %23

23:                                               ; preds = %19
  %24 = icmp ugt i32 %20, 32
  br i1 %24, label %25, label %26

25:                                               ; preds = %23
  tail call void (ptr, ...) @cli_dbgmsg(ptr noundef nonnull @.str.48) #7
  br label %.loopexit

26:                                               ; preds = %23
  tail call void (ptr, ...) @cli_dbgmsg(ptr noundef nonnull @.str.49, i32 noundef %20) #7
  %.8..8..8..sroa_idx = getelementptr inbounds nuw i8, ptr %3, i64 8
  %.8..8..8..sroa_idx69 = getelementptr inbounds nuw i8, ptr %3, i64 8
  %.12..12..12..sroa_idx = getelementptr inbounds nuw i8, ptr %3, i64 12
  %.12..12..12..sroa_idx70 = getelementptr inbounds nuw i8, ptr %3, i64 12
  br label %27

27:                                               ; preds = %62, %26
  %.022 = phi i32 [ 0, %26 ], [ %49, %62 ]
  %.0 = phi i64 [ 8, %26 ], [ %44, %62 ]
  %exitcond.not = icmp eq i32 %.022, %20
  br i1 %exitcond.not, label %.loopexit, label %28

28:                                               ; preds = %27
  %29 = load i64, ptr %6, align 8
  %or.cond.not = icmp ult i64 %.0, %29
  br i1 %or.cond.not, label %30, label %fmap_readn.exit39.thread

30:                                               ; preds = %28
  %31 = sub nuw i64 %29, %.0
  %spec.select.i36 = tail call i64 @llvm.umin.i64(i64 %31, i64 20)
  %32 = load ptr, ptr %9, align 8
  %33 = tail call ptr %32(ptr noundef nonnull %5, i64 noundef %.0, i64 noundef %spec.select.i36, i32 noundef 0) #7
  %.not26.i37 = icmp eq ptr %33, null
  br i1 %.not26.i37, label %fmap_readn.exit39.thread, label %fmap_readn.exit39

fmap_readn.exit39:                                ; preds = %30
  call void @llvm.memcpy.p0.p0.i64(ptr nonnull align 4 %3, ptr nonnull align 1 %33, i64 %spec.select.i36, i1 false)
  %.not31 = icmp ugt i64 %31, 19
  br i1 %.not31, label %43, label %fmap_readn.exit39.thread

fmap_readn.exit39.thread:                         ; preds = %30, %28, %fmap_readn.exit39
  tail call void (ptr, ...) @cli_dbgmsg(ptr noundef nonnull @.str.50) #7
  %34 = getelementptr inbounds nuw i8, ptr %0, i64 64
  %35 = load ptr, ptr %34, align 8
  %36 = getelementptr inbounds nuw i8, ptr %35, i64 8
  %37 = load i32, ptr %36, align 4
  %38 = and i32 %37, 2
  %.not34 = icmp eq i32 %38, 0
  br i1 %.not34, label %42, label %39

39:                                               ; preds = %fmap_readn.exit39.thread
  %40 = tail call i32 @cli_append_potentially_unwanted(ptr noundef nonnull %0, ptr noundef nonnull @.str.23) #7
  %41 = icmp eq i32 %40, 1
  br i1 %41, label %.loopexit, label %42

42:                                               ; preds = %39, %fmap_readn.exit39.thread
  br label %.loopexit

43:                                               ; preds = %fmap_readn.exit39
  %44 = add nuw nsw i64 %.0, 20
  %.8..8..8.41 = load i32, ptr %.8..8..8..sroa_idx, align 4
  %45 = tail call i32 @llvm.bswap.i32(i32 %.8..8..8.41)
  %46 = select i1 %13, i32 %.8..8..8.41, i32 %45
  store i32 %46, ptr %.8..8..8..sroa_idx69, align 4
  %.12..12..12.48 = load i32, ptr %.12..12..12..sroa_idx, align 4
  %47 = tail call i32 @llvm.bswap.i32(i32 %.12..12..12.48)
  %48 = select i1 %13, i32 %.12..12..12.48, i32 %47
  store i32 %48, ptr %.12..12..12..sroa_idx70, align 4
  %49 = add nuw nsw i32 %.022, 1
  tail call void (ptr, ...) @cli_dbgmsg(ptr noundef nonnull @.str.51, i32 noundef %49, i32 noundef %20) #7
  tail call void (ptr, ...) @cli_dbgmsg(ptr noundef nonnull @.str.52, i32 noundef %46) #7
  tail call void (ptr, ...) @cli_dbgmsg(ptr noundef nonnull @.str.53, i32 noundef %48) #7
  %50 = zext i32 %46 to i64
  %51 = icmp samesign ugt i64 %44, %50
  br i1 %51, label %52, label %62

52:                                               ; preds = %43
  tail call void (ptr, ...) @cli_dbgmsg(ptr noundef nonnull @.str.54, i32 noundef %46) #7
  %53 = getelementptr inbounds nuw i8, ptr %0, i64 64
  %54 = load ptr, ptr %53, align 8
  %55 = getelementptr inbounds nuw i8, ptr %54, i64 8
  %56 = load i32, ptr %55, align 4
  %57 = and i32 %56, 2
  %.not33 = icmp eq i32 %57, 0
  br i1 %.not33, label %61, label %58

58:                                               ; preds = %52
  %59 = tail call i32 @cli_append_potentially_unwanted(ptr noundef nonnull %0, ptr noundef nonnull @.str.23) #7
  %60 = icmp eq i32 %59, 1
  br i1 %60, label %.loopexit, label %61

61:                                               ; preds = %58, %52
  br label %.loopexit

62:                                               ; preds = %43
  %63 = zext i32 %48 to i64
  %64 = tail call i32 @cli_magic_scan_nested_fmap_type(ptr noundef nonnull %5, i64 noundef %50, i64 noundef %63, ptr noundef %0, i32 noundef 0, ptr noundef null, i32 noundef 0) #7
  %.not32 = icmp eq i32 %64, 0
  br i1 %.not32, label %27, label %.loopexit

.loopexit:                                        ; preds = %27, %62, %58, %39, %19, %61, %42, %25, %16, %fmap_readn.exit.thread
  %.020 = phi i32 [ 26, %fmap_readn.exit.thread ], [ 26, %25 ], [ 26, %42 ], [ 26, %61 ], [ 26, %16 ], [ 0, %19 ], [ 1, %39 ], [ 1, %58 ], [ 0, %27 ], [ %64, %62 ]
  ret i32 %.020
}